; Function Attrs: mustprogress uwtable
define hidden void @_ZN13IlmThread_3_29TaskGroup4Data7addTaskEv(ptr noundef nonnull align 8 dereferenceable(48) %this) local_unnamed_addr #0 align 2 {
entry:
  %inFlight = getelementptr inbounds i8, ptr %this, i64 4
  %0 = atomicrmw add ptr %inFlight, i32 1 seq_cst, align 4
  %1 = atomicrmw add ptr %this, i32 1 seq_cst, align 4
  %cmp = icmp eq i32 %1, 0
  br i1 %cmp, label %if.then, label %if.end

if.then:                                          ; preds = %entry
  %isEmpty = getelementptr inbounds i8, ptr %this, i64 8
  tail call void @_ZN13IlmThread_3_29Semaphore4waitEv(ptr noundef nonnull align 8 dereferenceable(40) %isEmpty)
  br label %if.end

if.end:                                           ; preds = %if.then, %entry
  ret void
}